target datalayout = "e-m:e-p270:32:32-p271:32:32-p272:64:64-i64:64-i128:128-f80:128-n8:16:32:64-S128"
target triple = "x86_64-unknown-linux-gnu"

%struct.PCIDevice = type { %struct.DeviceState, i8, i8, ptr, ptr, ptr, ptr, ptr, i32, %struct.PCIReqIDCache, [64 x i8], [7 x %struct.PCIIORegion], %struct.AddressSpace, %struct.MemoryRegion, %struct.MemoryRegion, ptr, ptr, [3 x ptr], i8, i8, i32, i8, i32, ptr, ptr, ptr, ptr, ptr, ptr, %struct.MemoryRegion, %struct.MemoryRegion, %struct.MemoryRegion, ptr, i8, i32, i8, %struct.PCIExpressDevice, ptr, ptr, i32, i8, %struct.MemoryRegion, i32, ptr, ptr, ptr, ptr, ptr, i32 }
%struct.DeviceState = type { %struct.Object, ptr, ptr, i8, i8, i64, ptr, i32, i8, ptr, %struct.NamedGPIOListHead, %struct.NamedClockListHead, %struct.BusStateHead, i32, i32, i32, %struct.ResettableState, ptr, %struct.MemReentrancyGuard }
%struct.Object = type { ptr, ptr, ptr, i32, ptr }
%struct.NamedGPIOListHead = type { ptr }
%struct.NamedClockListHead = type { ptr }
%struct.BusStateHead = type { ptr }
%struct.ResettableState = type { i32, i8, i8 }
%struct.MemReentrancyGuard = type { i8 }
%struct.PCIReqIDCache = type { ptr, i32 }
%struct.PCIIORegion = type { i64, i64, i8, ptr, ptr }
%struct.AddressSpace = type { %struct.rcu_head, ptr, ptr, ptr, i32, i32, ptr, %union.anon, %union.anon.0 }
%struct.rcu_head = type { ptr, ptr }
%union.anon = type { %struct.QTailQLink }
%struct.QTailQLink = type { ptr, ptr }
%union.anon.0 = type { %struct.QTailQLink }
%struct.PCIExpressDevice = type { i8, i8, i8, i16, %struct.PCIEAERLog, i16, i16, i16, %struct.PCIESriovPF, %struct.PCIESriovVF }
%struct.PCIEAERLog = type { i16, i16, ptr }
%struct.PCIESriovPF = type { i16, [7 x i8], ptr, ptr }
%struct.PCIESriovVF = type { ptr, i16 }
%struct.MemoryRegion = type { %struct.Object, i8, i8, i8, i8, i8, i8, i8, i8, i8, i8, ptr, ptr, ptr, ptr, ptr, ptr, i32, i128, i64, ptr, i64, i8, i8, i8, i8, i8, ptr, i64, i32, %union.anon.1, %union.anon.2, %union.anon.3, ptr, i32, ptr, ptr, i8 }
%union.anon.1 = type { %struct.QTailQLink }
%union.anon.2 = type { %struct.QTailQLink }
%union.anon.3 = type { %struct.QTailQLink }

@xen_allowed = external global i8, align 1

; Function Attrs: nounwind sspstrong uwtable
define internal i32 @ldl_he_p(ptr noundef %ptr) #0 {
entry:
  %ptr.addr = alloca ptr, align 8
  %r = alloca i32, align 4
  store ptr %ptr, ptr %ptr.addr, align 8
  %0 = load ptr, ptr %ptr.addr, align 8
  call void @llvm.memcpy.p0.p0.i64(ptr align 4 %r, ptr align 1 %0, i64 4, i1 false)
  %1 = load i32, ptr %r, align 4
  ret i32 %1
}

; Function Attrs: nounwind sspstrong uwtable
define internal i32 @ldl_le_p(ptr noundef %ptr) #0 {
entry:
  %ptr.addr = alloca ptr, align 8
  store ptr %ptr, ptr %ptr.addr, align 8
  %0 = load ptr, ptr %ptr.addr, align 8
  %call = call i32 @ldl_he_p(ptr noundef %0)
  ret i32 %call
}

; Function Attrs: nounwind sspstrong uwtable
define internal i32 @pci_get_long(ptr noundef %config) #0 {
entry:
  %config.addr = alloca ptr, align 8
  store ptr %config, ptr %config.addr, align 8
  %0 = load ptr, ptr %config.addr, align 8
  %call = call i32 @ldl_le_p(ptr noundef %0)
  ret i32 %call
}

; Function Attrs: nounwind sspstrong uwtable
define internal zeroext i1 @msix_vector_masked(ptr noundef %dev, i32 noundef %vector, i1 noundef zeroext %fmask) #0 {
entry:
  %retval = alloca i1, align 1
  %dev.addr = alloca ptr, align 8
  %vector.addr = alloca i32, align 4
  %fmask.addr = alloca i8, align 1
  %offset = alloca i32, align 4
  %data = alloca ptr, align 8
  store ptr %dev, ptr %dev.addr, align 8
  store i32 %vector, ptr %vector.addr, align 4
  %frombool = zext i1 %fmask to i8
  store i8 %frombool, ptr %fmask.addr, align 1
  %0 = load i32, ptr %vector.addr, align 4
  %mul = mul i32 %0, 16
  store i32 %mul, ptr %offset, align 4
  %1 = load ptr, ptr %dev.addr, align 8
  %msix_table = getelementptr inbounds %struct.PCIDevice, ptr %1, i32 0, i32 23
  %2 = load ptr, ptr %msix_table, align 8
  %3 = load i32, ptr %offset, align 4
  %add = add i32 %3, 8
  %idxprom = zext i32 %add to i64
  %arrayidx = getelementptr i8, ptr %2, i64 %idxprom
  store ptr %arrayidx, ptr %data, align 8
  %4 = load i8, ptr @xen_allowed, align 1
  %tobool = trunc i8 %4 to i1
  br i1 %tobool, label %land.lhs.true, label %if.end

land.lhs.true:                                    ; preds = %entry
  %5 = load ptr, ptr %data, align 8
  %call = call i32 @pci_get_long(ptr noundef %5)
  %call1 = call i32 @xen_is_pirq_msi(i32 noundef %call)
  %tobool2 = icmp ne i32 %call1, 0
  br i1 %tobool2, label %if.then, label %if.end

if.then:                                          ; preds = %land.lhs.true
  store i1 false, ptr %retval, align 1
  br label %return

if.end:                                           ; preds = %land.lhs.true, %entry
  %6 = load i8, ptr %fmask.addr, align 1
  %tobool3 = trunc i8 %6 to i1
  br i1 %tobool3, label %lor.end, label %lor.rhs

lor.rhs:                                          ; preds = %if.end
  %7 = load ptr, ptr %dev.addr, align 8
  %msix_table4 = getelementptr inbounds %struct.PCIDevice, ptr %7, i32 0, i32 23
  %8 = load ptr, ptr %msix_table4, align 8
  %9 = load i32, ptr %offset, align 4
  %add5 = add i32 %9, 12
  %idxprom6 = zext i32 %add5 to i64
  %arrayidx7 = getelementptr i8, ptr %8, i64 %idxprom6
  %10 = load i8, ptr %arrayidx7, align 1
  %conv = zext i8 %10 to i32
  %and = and i32 %conv, 1
  %tobool8 = icmp ne i32 %and, 0
  br label %lor.end

lor.end:                                          ; preds = %lor.rhs, %if.end
  %11 = phi i1 [ true, %if.end ], [ %tobool8, %lor.rhs ]
  store i1 %11, ptr %retval, align 1
  br label %return

return:                                           ; preds = %lor.end, %if.then
  %12 = load i1, ptr %retval, align 1
  ret i1 %12
}

; Function Attrs: nounwind sspstrong uwtable
define internal ptr @msix_pending_byte(ptr noundef %dev, i32 noundef %vector) #0 {
entry:
  %dev.addr = alloca ptr, align 8
  %vector.addr = alloca i32, align 4
  store ptr %dev, ptr %dev.addr, align 8
  store i32 %vector, ptr %vector.addr, align 4
  %0 = load ptr, ptr %dev.addr, align 8
  %msix_pba = getelementptr inbounds %struct.PCIDevice, ptr %0, i32 0, i32 24
  %1 = load ptr, ptr %msix_pba, align 16
  %2 = load i32, ptr %vector.addr, align 4
  %div = sdiv i32 %2, 8
  %idx.ext = sext i32 %div to i64
  %add.ptr = getelementptr i8, ptr %1, i64 %idx.ext
  ret ptr %add.ptr
}

; Function Attrs: nounwind sspstrong uwtable
define internal zeroext i8 @msix_pending_mask(i32 noundef %vector) #0 {
entry:
  %vector.addr = alloca i32, align 4
  store i32 %vector, ptr %vector.addr, align 4
  %0 = load i32, ptr %vector.addr, align 4
  %rem = srem i32 %0, 8
  %shl = shl i32 1, %rem
  %conv = trunc i32 %shl to i8
  ret i8 %conv
}

; Function Attrs: nounwind sspstrong uwtable
define dso_local zeroext i1 @msix_is_masked(ptr noundef %dev, i32 noundef %vector) #0 {
entry:
  %dev.addr = alloca ptr, align 8
  %vector.addr = alloca i32, align 4
  store ptr %dev, ptr %dev.addr, align 8
  store i32 %vector, ptr %vector.addr, align 4
  %0 = load ptr, ptr %dev.addr, align 8
  %1 = load i32, ptr %vector.addr, align 4
  %2 = load ptr, ptr %dev.addr, align 8
  %msix_function_masked = getelementptr inbounds %struct.PCIDevice, ptr %2, i32 0, i32 33
  %3 = load i8, ptr %msix_function_masked, align 8
  %tobool = trunc i8 %3 to i1
  %call = call zeroext i1 @msix_vector_masked(ptr noundef %0, i32 noundef %1, i1 noundef zeroext %tobool)
  ret i1 %call
}

; Function Attrs: nounwind sspstrong uwtable
define dso_local void @msix_clr_pending(ptr noundef %dev, i32 noundef %vector) #0 {
entry:
  %dev.addr = alloca ptr, align 8
  %vector.addr = alloca i32, align 4
  store ptr %dev, ptr %dev.addr, align 8
  store i32 %vector, ptr %vector.addr, align 4
  %0 = load i32, ptr %vector.addr, align 4
  %call = call zeroext i8 @msix_pending_mask(i32 noundef %0)
  %conv = zext i8 %call to i32
  %not = xor i32 %conv, -1
  %1 = load ptr, ptr %dev.addr, align 8
  %2 = load i32, ptr %vector.addr, align 4
  %call1 = call ptr @msix_pending_byte(ptr noundef %1, i32 noundef %2)
  %3 = load i8, ptr %call1, align 1
  %conv2 = zext i8 %3 to i32
  %and = and i32 %conv2, %not
  %conv3 = trunc i32 %and to i8
  store i8 %conv3, ptr %call1, align 1
  ret void
}

; Function Attrs: nounwind sspstrong uwtable
define internal void @msix_mask_all(ptr noundef %dev, i32 noundef %nentries) #0 {
entry:
  %dev.addr = alloca ptr, align 8
  %nentries.addr = alloca i32, align 4
  %vector = alloca i32, align 4
  %offset = alloca i32, align 4
  %was_masked = alloca i8, align 1
  store ptr %dev, ptr %dev.addr, align 8
  store i32 %nentries, ptr %nentries.addr, align 4
  store i32 0, ptr %vector, align 4
  br label %for.cond

for.cond:                                         ; preds = %for.inc, %entry
  %0 = load i32, ptr %vector, align 4
  %1 = load i32, ptr %nentries.addr, align 4
  %cmp = icmp ult i32 %0, %1
  br i1 %cmp, label %for.body, label %for.end

for.body:                                         ; preds = %for.cond
  %2 = load i32, ptr %vector, align 4
  %mul = mul i32 %2, 16
  %add = add i32 %mul, 12
  store i32 %add, ptr %offset, align 4
  %3 = load ptr, ptr %dev.addr, align 8
  %4 = load i32, ptr %vector, align 4
  %call = call zeroext i1 @msix_is_masked(ptr noundef %3, i32 noundef %4)
  %frombool = zext i1 %call to i8
  store i8 %frombool, ptr %was_masked, align 1
  %5 = load ptr, ptr %dev.addr, align 8
  %msix_table = getelementptr inbounds %struct.PCIDevice, ptr %5, i32 0, i32 23
  %6 = load ptr, ptr %msix_table, align 8
  %7 = load i32, ptr %offset, align 4
  %idxprom = zext i32 %7 to i64
  %arrayidx = getelementptr i8, ptr %6, i64 %idxprom
  %8 = load i8, ptr %arrayidx, align 1
  %conv = zext i8 %8 to i32
  %or = or i32 %conv, 1
  %conv1 = trunc i32 %or to i8
  store i8 %conv1, ptr %arrayidx, align 1
  %9 = load ptr, ptr %dev.addr, align 8
  %10 = load i32, ptr %vector, align 4
  %11 = load i8, ptr %was_masked, align 1
  %tobool = trunc i8 %11 to i1
  call void @msix_handle_mask_update(ptr noundef %9, i32 noundef %10, i1 noundef zeroext %tobool)
  br label %for.inc

for.inc:                                          ; preds = %for.body
  %12 = load i32, ptr %vector, align 4
  %inc = add i32 %12, 1
  store i32 %inc, ptr %vector, align 4
  br label %for.cond, !llvm.loop !7

for.end:                                          ; preds = %for.cond
  ret void
}

; Function Attrs: nounwind sspstrong uwtable
define internal void @msix_clear_all_vectors(ptr noundef %dev) #0 {
entry:
  %dev.addr = alloca ptr, align 8
  %vector = alloca i32, align 4
  store ptr %dev, ptr %dev.addr, align 8
  store i32 0, ptr %vector, align 4
  br label %for.cond

for.cond:                                         ; preds = %for.inc, %entry
  %0 = load i32, ptr %vector, align 4
  %1 = load ptr, ptr %dev.addr, align 8
  %msix_entries_nr = getelementptr inbounds %struct.PCIDevice, ptr %1, i32 0, i32 22
  %2 = load i32, ptr %msix_entries_nr, align 4
  %cmp = icmp slt i32 %0, %2
  br i1 %cmp, label %for.body, label %for.end

for.body:                                         ; preds = %for.cond
  %3 = load ptr, ptr %dev.addr, align 8
  %4 = load i32, ptr %vector, align 4
  call void @msix_clr_pending(ptr noundef %3, i32 noundef %4)
  br label %for.inc

for.inc:                                          ; preds = %for.body
  %5 = load i32, ptr %vector, align 4
  %inc = add i32 %5, 1
  store i32 %inc, ptr %vector, align 4
  br label %for.cond, !llvm.loop !10

for.end:                                          ; preds = %for.cond
  ret void
}

; Function Attrs: nounwind sspstrong uwtable
define dso_local i32 @msix_present(ptr noundef %dev) #0 {
entry:
  %dev.addr = alloca ptr, align 8
  store ptr %dev, ptr %dev.addr, align 8
  %0 = load ptr, ptr %dev.addr, align 8
  %cap_present = getelementptr inbounds %struct.PCIDevice, ptr %0, i32 0, i32 20
  %1 = load i32, ptr %cap_present, align 4
  %and = and i32 %1, 2
  ret i32 %and
}

; Function Attrs: nounwind sspstrong uwtable
define dso_local void @msix_reset(ptr noundef %dev) #0 {
entry:
  %dev.addr = alloca ptr, align 8
  store ptr %dev, ptr %dev.addr, align 8
  %0 = load ptr, ptr %dev.addr, align 8
  %call = call i32 @msix_present(ptr noundef %0)
  %tobool = icmp ne i32 %call, 0
  br i1 %tobool, label %if.end, label %if.then

if.then:                                          ; preds = %entry
  br label %return

if.end:                                           ; preds = %entry
  %1 = load ptr, ptr %dev.addr, align 8
  call void @msix_clear_all_vectors(ptr noundef %1)
  %2 = load ptr, ptr %dev.addr, align 8
  %wmask = getelementptr inbounds %struct.PCIDevice, ptr %2, i32 0, i32 5
  %3 = load ptr, ptr %wmask, align 8
  %4 = load ptr, ptr %dev.addr, align 8
  %msix_cap = getelementptr inbounds %struct.PCIDevice, ptr %4, i32 0, i32 21
  %5 = load i8, ptr %msix_cap, align 16
  %conv = zext i8 %5 to i32
  %add = add i32 %conv, 3
  %idxprom = sext i32 %add to i64
  %arrayidx = getelementptr i8, ptr %3, i64 %idxprom
  %6 = load i8, ptr %arrayidx, align 1
  %conv1 = zext i8 %6 to i32
  %not = xor i32 %conv1, -1
  %7 = load ptr, ptr %dev.addr, align 8
  %config = getelementptr inbounds %struct.PCIDevice, ptr %7, i32 0, i32 3
  %8 = load ptr, ptr %config, align 8
  %9 = load ptr, ptr %dev.addr, align 8
  %msix_cap2 = getelementptr inbounds %struct.PCIDevice, ptr %9, i32 0, i32 21
  %10 = load i8, ptr %msix_cap2, align 16
  %conv3 = zext i8 %10 to i32
  %add4 = add i32 %conv3, 3
  %idxprom5 = sext i32 %add4 to i64
  %arrayidx6 = getelementptr i8, ptr %8, i64 %idxprom5
  %11 = load i8, ptr %arrayidx6, align 1
  %conv7 = zext i8 %11 to i32
  %and = and i32 %conv7, %not
  %conv8 = trunc i32 %and to i8
  store i8 %conv8, ptr %arrayidx6, align 1
  %12 = load ptr, ptr %dev.addr, align 8
  %msix_table = getelementptr inbounds %struct.PCIDevice, ptr %12, i32 0, i32 23
  %13 = load ptr, ptr %msix_table, align 8
  %14 = load ptr, ptr %dev.addr, align 8
  %msix_entries_nr = getelementptr inbounds %struct.PCIDevice, ptr %14, i32 0, i32 22
  %15 = load i32, ptr %msix_entries_nr, align 4
  %mul = mul i32 %15, 16
  %conv9 = sext i32 %mul to i64
  call void @llvm.memset.p0.i64(ptr align 1 %13, i8 0, i64 %conv9, i1 false)
  %16 = load ptr, ptr %dev.addr, align 8
  %msix_pba = getelementptr inbounds %struct.PCIDevice, ptr %16, i32 0, i32 24
  %17 = load ptr, ptr %msix_pba, align 16
  %18 = load ptr, ptr %dev.addr, align 8
  %msix_entries_nr10 = getelementptr inbounds %struct.PCIDevice, ptr %18, i32 0, i32 22
  %19 = load i32, ptr %msix_entries_nr10, align 4
  %add11 = add i32 %19, 64
  %sub = sub i32 %add11, 1
  %div = sdiv i32 %sub, 64
  %mul12 = mul i32 %div, 64
  %div13 = sdiv i32 %mul12, 8
  %conv14 = sext i32 %div13 to i64
  call void @llvm.memset.p0.i64(ptr align 1 %17, i8 0, i64 %conv14, i1 false)
  %20 = load ptr, ptr %dev.addr, align 8
  %21 = load ptr, ptr %dev.addr, align 8
  %msix_entries_nr15 = getelementptr inbounds %struct.PCIDevice, ptr %21, i32 0, i32 22
  %22 = load i32, ptr %msix_entries_nr15, align 4
  call void @msix_mask_all(ptr noundef %20, i32 noundef %22)
  br label %return

return:                                           ; preds = %if.end, %if.then
  ret void
}