; Function Attrs: nounwind sspstrong uwtable
define dso_local void @msix_reset(ptr noundef %dev) local_unnamed_addr #0 {
entry:
  %cap_present.i = getelementptr inbounds nuw i8, ptr %dev, i64 1260
  %0 = load i32, ptr %cap_present.i, align 4
  %and.i = and i32 %0, 2
  %tobool.not = icmp eq i32 %and.i, 0
  br i1 %tobool.not, label %return, label %if.end

if.end:                                           ; preds = %entry
  %msix_entries_nr.i = getelementptr inbounds nuw i8, ptr %dev, i64 1268
  %1 = load i32, ptr %msix_entries_nr.i, align 4
  %cmp5.i = icmp sgt i32 %1, 0
  br i1 %cmp5.i, label %for.body.lr.ph.i, label %msix_clear_all_vectors.exit

for.body.lr.ph.i:                                 ; preds = %if.end
  %2 = getelementptr i8, ptr %dev, i64 1280
  br label %for.body.i

for.body.i:                                       ; preds = %for.body.i, %for.body.lr.ph.i
  %vector.06.i = phi i32 [ 0, %for.body.lr.ph.i ], [ %inc.i, %for.body.i ]
  %rem1.i.i.i = and i32 %vector.06.i, 7
  %shl.i.i.i = shl nuw nsw i32 1, %rem1.i.i.i
  %conv.i.i.i = trunc nuw i32 %shl.i.i.i to i8
  %not.i.i = xor i8 %conv.i.i.i, -1
  %dev.val.i.i = load ptr, ptr %2, align 16
  %div.i.i4.i = lshr i32 %vector.06.i, 3
  %idx.ext.i.i.i = zext nneg i32 %div.i.i4.i to i64
  %add.ptr.i.i.i = getelementptr i8, ptr %dev.val.i.i, i64 %idx.ext.i.i.i
  %3 = load i8, ptr %add.ptr.i.i.i, align 1
  %and.i.i = and i8 %3, %not.i.i
  store i8 %and.i.i, ptr %add.ptr.i.i.i, align 1
  %inc.i = add nuw nsw i32 %vector.06.i, 1
  %4 = load i32, ptr %msix_entries_nr.i, align 4
  %cmp.i = icmp slt i32 %inc.i, %4
  br i1 %cmp.i, label %for.body.i, label %msix_clear_all_vectors.exit, !llvm.loop !9

msix_clear_all_vectors.exit:                      ; preds = %for.body.i, %if.end
  %wmask = getelementptr inbounds nuw i8, ptr %dev, i64 184
  %5 = load ptr, ptr %wmask, align 8
  %msix_cap = getelementptr inbounds nuw i8, ptr %dev, i64 1264
  %6 = load i8, ptr %msix_cap, align 16
  %conv = zext i8 %6 to i64
  %add = add nuw nsw i64 %conv, 3
  %arrayidx = getelementptr i8, ptr %5, i64 %add
  %7 = load i8, ptr %arrayidx, align 1
  %not = xor i8 %7, -1
  %config = getelementptr inbounds nuw i8, ptr %dev, i64 168
  %8 = load ptr, ptr %config, align 8
  %arrayidx6 = getelementptr i8, ptr %8, i64 %add
  %9 = load i8, ptr %arrayidx6, align 1
  %and = and i8 %9, %not
  store i8 %and, ptr %arrayidx6, align 1
  %msix_table = getelementptr inbounds nuw i8, ptr %dev, i64 1272
  %10 = load ptr, ptr %msix_table, align 8
  %11 = load i32, ptr %msix_entries_nr.i, align 4
  %mul = shl i32 %11, 4
  %conv9 = sext i32 %mul to i64
  tail call void @llvm.memset.p0.i64(ptr align 1 %10, i8 0, i64 %conv9, i1 false)
  %msix_pba = getelementptr inbounds nuw i8, ptr %dev, i64 1280
  %12 = load ptr, ptr %msix_pba, align 16
  %13 = load i32, ptr %msix_entries_nr.i, align 4
  %sub = add i32 %13, 63
  %div = sdiv i32 %sub, 64
  %div13 = shl nsw i32 %div, 3
  %conv14 = sext i32 %div13 to i64
  tail call void @llvm.memset.p0.i64(ptr align 1 %12, i8 0, i64 %conv14, i1 false)
  %14 = load i32, ptr %msix_entries_nr.i, align 4
  %cmp7.not.i = icmp eq i32 %14, 0
  br i1 %cmp7.not.i, label %return, label %for.body.lr.ph.i12

for.body.lr.ph.i12:                               ; preds = %msix_clear_all_vectors.exit
  %msix_function_masked.i.i = getelementptr inbounds nuw i8, ptr %dev, i64 2152
  %wide.trip.count.i = zext i32 %14 to i64
  br label %for.body.i13

for.body.i13:                                     ; preds = %msix_is_masked.exit.i, %for.body.lr.ph.i12
  %indvars.iv.i = phi i64 [ 0, %for.body.lr.ph.i12 ], [ %indvars.iv.next.i, %msix_is_masked.exit.i ]
  %15 = trunc nuw i64 %indvars.iv.i to i32
  %mul.i = shl i32 %15, 4
  %add.i = or disjoint i32 %mul.i, 12
  %16 = load i8, ptr %msix_function_masked.i.i, align 8
  %tobool.i.i = trunc i8 %16 to i1
  %17 = load i8, ptr @xen_allowed, align 1
  %tobool.i.i.i = trunc i8 %17 to i1
  br i1 %tobool.i.i.i, label %land.lhs.true.i.i.i, label %if.end.i.i.i

land.lhs.true.i.i.i:                              ; preds = %for.body.i13
  %18 = load ptr, ptr %msix_table, align 8
  %add.i.i.i = or disjoint i32 %mul.i, 8
  %idxprom.i.i.i = zext i32 %add.i.i.i to i64
  %arrayidx.i.i.i = getelementptr i8, ptr %18, i64 %idxprom.i.i.i
  %arrayidx.val.i.i.i = load i32, ptr %arrayidx.i.i.i, align 1
  %call1.i.i.i = tail call i32 @xen_is_pirq_msi(i32 noundef %arrayidx.val.i.i.i) #14
  %tobool2.not.i.i.i = icmp ne i32 %call1.i.i.i, 0
  %brmerge.i.i.i = or i1 %tobool2.not.i.i.i, %tobool.i.i
  %not.tobool2.not.i.i.i = xor i1 %tobool2.not.i.i.i, true
  br i1 %brmerge.i.i.i, label %msix_is_masked.exit.i, label %lor.rhs.i.i.i

if.end.i.i.i:                                     ; preds = %for.body.i13
  br i1 %tobool.i.i, label %msix_is_masked.exit.i, label %lor.rhs.i.i.i

lor.rhs.i.i.i:                                    ; preds = %if.end.i.i.i, %land.lhs.true.i.i.i
  %19 = load ptr, ptr %msix_table, align 8
  %idxprom6.i.i.i = zext i32 %add.i to i64
  %arrayidx7.i.i.i = getelementptr i8, ptr %19, i64 %idxprom6.i.i.i
  %20 = load i8, ptr %arrayidx7.i.i.i, align 1
  %21 = and i8 %20, 1
  %tobool8.i.i.i = icmp ne i8 %21, 0
  br label %msix_is_masked.exit.i

msix_is_masked.exit.i:                            ; preds = %lor.rhs.i.i.i, %if.end.i.i.i, %land.lhs.true.i.i.i
  %retval.0.i.i.i = phi i1 [ %not.tobool2.not.i.i.i, %land.lhs.true.i.i.i ], [ true, %if.end.i.i.i ], [ %tobool8.i.i.i, %lor.rhs.i.i.i ]
  %22 = load ptr, ptr %msix_table, align 8
  %idxprom.i = zext i32 %add.i to i64
  %arrayidx.i = getelementptr i8, ptr %22, i64 %idxprom.i
  %23 = load i8, ptr %arrayidx.i, align 1
  %24 = or i8 %23, 1
  store i8 %24, ptr %arrayidx.i, align 1
  tail call fastcc void @msix_handle_mask_update(ptr noundef nonnull %dev, i32 noundef %15, i1 noundef zeroext %retval.0.i.i.i)
  %indvars.iv.next.i = add nuw nsw i64 %indvars.iv.i, 1
  %exitcond.not.i = icmp eq i64 %indvars.iv.next.i, %wide.trip.count.i
  br i1 %exitcond.not.i, label %return, label %for.body.i13, !llvm.loop !7

return:                                           ; preds = %msix_is_masked.exit.i, %msix_clear_all_vectors.exit, %entry
  ret void
}